target datalayout = "e-m:e-p270:32:32-p271:32:32-p272:64:64-i64:64-i128:128-f80:128-n8:16:32:64-S128"
target triple = "x86_64-pc-linux-gnu"

%struct.AVCodecContext = type { ptr, i32, i32, ptr, i32, i32, ptr, ptr, ptr, i64, i32, i32, ptr, i32, %struct.AVRational, %struct.AVRational, %struct.AVRational, i32, i32, i32, i32, i32, %struct.AVRational, i32, i32, i32, i32, i32, i32, i32, i32, i32, i32, i32, ptr, ptr, i32, float, float, float, float, float, float, float, float, float, i32, i32, i32, i32, i32, i32, i32, i32, i32, i32, i32, i32, ptr, ptr, ptr, i32, i32, i32, i32, i32, i32, i32, i32, i32, i32, %struct.AVChannelLayout, i32, i32, i32, i32, i32, i32, i32, i32, ptr, i32, i32, i32, float, float, i32, i32, i32, i32, i32, ptr, i64, i64, float, float, i32, i32, ptr, ptr, i32, i32, i32, i32, i32, ptr, ptr, ptr, ptr, i32, i32, [8 x i64], i32, i32, i32, i32, i32, i32, i32, ptr, ptr, i32, i32, i32, i32, i32, i32, i32, i32, i32, i32, ptr, ptr, i32, i32, ptr, ptr, ptr, ptr, i32, i32, i64, i32, i32, i64, ptr, i64, ptr, i32, ptr, i32 }
%struct.AVRational = type { i32, i32 }
%struct.AVChannelLayout = type { i32, i32, %union.anon.0, ptr }
%union.anon.0 = type { i64 }
%struct.ScreenpressoContext = type { ptr, ptr, i64 }

@.str.2 = private unnamed_addr constant [27 x i8] c"Invalid image size %dx%d.\0A\00", align 1

; Function Attrs: cold nounwind optsize uwtable
define internal i32 @screenpresso_init(ptr noundef %0) #0 {
  %2 = alloca i32, align 4
  %3 = alloca ptr, align 8
  %4 = alloca ptr, align 8
  %5 = alloca i32, align 4
  %6 = alloca i32, align 4
  store ptr %0, ptr %3, align 8, !tbaa !4
  call void @llvm.lifetime.start.p0(i64 8, ptr %4) #4
  %7 = load ptr, ptr %3, align 8, !tbaa !4
  %8 = getelementptr inbounds nuw %struct.AVCodecContext, ptr %7, i32 0, i32 6
  %9 = load ptr, ptr %8, align 8, !tbaa !9
  store ptr %9, ptr %4, align 8, !tbaa !29
  call void @llvm.lifetime.start.p0(i64 4, ptr %5) #4
  %10 = load ptr, ptr %3, align 8, !tbaa !4
  %11 = getelementptr inbounds nuw %struct.AVCodecContext, ptr %10, i32 0, i32 18
  %12 = load i32, ptr %11, align 8, !tbaa !31
  %13 = load ptr, ptr %3, align 8, !tbaa !4
  %14 = getelementptr inbounds nuw %struct.AVCodecContext, ptr %13, i32 0, i32 19
  %15 = load i32, ptr %14, align 4, !tbaa !32
  %16 = load ptr, ptr %3, align 8, !tbaa !4
  %17 = call i32 @av_image_check_size(i32 noundef %12, i32 noundef %15, i32 noundef 0, ptr noundef %16)
  store i32 %17, ptr %5, align 4, !tbaa !33
  %18 = load i32, ptr %5, align 4, !tbaa !33
  %19 = icmp slt i32 %18, 0
  br i1 %19, label %20, label %29

20:                                               ; preds = %1
  %21 = load ptr, ptr %3, align 8, !tbaa !4
  %22 = load ptr, ptr %3, align 8, !tbaa !4
  %23 = getelementptr inbounds nuw %struct.AVCodecContext, ptr %22, i32 0, i32 18
  %24 = load i32, ptr %23, align 8, !tbaa !31
  %25 = load ptr, ptr %3, align 8, !tbaa !4
  %26 = getelementptr inbounds nuw %struct.AVCodecContext, ptr %25, i32 0, i32 19
  %27 = load i32, ptr %26, align 4, !tbaa !32
  call void (ptr, i32, ptr, ...) @av_log(ptr noundef %21, i32 noundef 16, ptr noundef @.str.2, i32 noundef %24, i32 noundef %27)
  %28 = load i32, ptr %5, align 4, !tbaa !33
  store i32 %28, ptr %2, align 4
  store i32 1, ptr %6, align 4
  br label %62

29:                                               ; preds = %1
  %30 = call ptr @av_frame_alloc()
  %31 = load ptr, ptr %4, align 8, !tbaa !29
  %32 = getelementptr inbounds nuw %struct.ScreenpressoContext, ptr %31, i32 0, i32 0
  store ptr %30, ptr %32, align 8, !tbaa !34
  %33 = load ptr, ptr %4, align 8, !tbaa !29
  %34 = getelementptr inbounds nuw %struct.ScreenpressoContext, ptr %33, i32 0, i32 0
  %35 = load ptr, ptr %34, align 8, !tbaa !34
  %36 = icmp ne ptr %35, null
  br i1 %36, label %38, label %37

37:                                               ; preds = %29
  store i32 -12, ptr %2, align 4
  store i32 1, ptr %6, align 4
  br label %62

38:                                               ; preds = %29
  %39 = load ptr, ptr %3, align 8, !tbaa !4
  %40 = getelementptr inbounds nuw %struct.AVCodecContext, ptr %39, i32 0, i32 18
  %41 = load i32, ptr %40, align 8, !tbaa !31
  %42 = load ptr, ptr %3, align 8, !tbaa !4
  %43 = getelementptr inbounds nuw %struct.AVCodecContext, ptr %42, i32 0, i32 19
  %44 = load i32, ptr %43, align 4, !tbaa !32
  %45 = mul nsw i32 %41, %44
  %46 = mul nsw i32 %45, 4
  %47 = sext i32 %46 to i64
  %48 = load ptr, ptr %4, align 8, !tbaa !29
  %49 = getelementptr inbounds nuw %struct.ScreenpressoContext, ptr %48, i32 0, i32 2
  store i64 %47, ptr %49, align 8, !tbaa !37
  %50 = load ptr, ptr %4, align 8, !tbaa !29
  %51 = getelementptr inbounds nuw %struct.ScreenpressoContext, ptr %50, i32 0, i32 2
  %52 = load i64, ptr %51, align 8, !tbaa !37
  %53 = call noalias ptr @av_malloc(i64 noundef %52)
  %54 = load ptr, ptr %4, align 8, !tbaa !29
  %55 = getelementptr inbounds nuw %struct.ScreenpressoContext, ptr %54, i32 0, i32 1
  store ptr %53, ptr %55, align 8, !tbaa !38
  %56 = load ptr, ptr %4, align 8, !tbaa !29
  %57 = getelementptr inbounds nuw %struct.ScreenpressoContext, ptr %56, i32 0, i32 1
  %58 = load ptr, ptr %57, align 8, !tbaa !38
  %59 = icmp ne ptr %58, null
  br i1 %59, label %61, label %60

60:                                               ; preds = %38
  store i32 -12, ptr %2, align 4
  store i32 1, ptr %6, align 4
  br label %62

61:                                               ; preds = %38
  store i32 0, ptr %2, align 4
  store i32 1, ptr %6, align 4
  br label %62

62:                                               ; preds = %61, %60, %37, %20
  call void @llvm.lifetime.end.p0(i64 4, ptr %5) #4
  call void @llvm.lifetime.end.p0(i64 8, ptr %4) #4
  %63 = load i32, ptr %2, align 4
  ret i32 %63
}