; Function Attrs: cold nounwind optsize uwtable
define internal range(i32 -2147483648, 1) i32 @screenpresso_init(ptr noundef %0) #0 {
  %2 = getelementptr inbounds nuw i8, ptr %0, i64 32
  %3 = load ptr, ptr %2, align 8, !tbaa !4
  %4 = getelementptr inbounds nuw i8, ptr %0, i64 112
  %5 = load i32, ptr %4, align 8, !tbaa !27
  %6 = getelementptr inbounds nuw i8, ptr %0, i64 116
  %7 = load i32, ptr %6, align 4, !tbaa !28
  %8 = tail call i32 @av_image_check_size(i32 noundef %5, i32 noundef %7, i32 noundef 0, ptr noundef %0) #4
  %9 = icmp slt i32 %8, 0
  br i1 %9, label %10, label %13

10:                                               ; preds = %1
  %11 = load i32, ptr %4, align 8, !tbaa !27
  %12 = load i32, ptr %6, align 4, !tbaa !28
  tail call void (ptr, i32, ptr, ...) @av_log(ptr noundef nonnull %0, i32 noundef 16, ptr noundef nonnull @.str.2, i32 noundef %11, i32 noundef %12) #4
  br label %24

13:                                               ; preds = %1
  %14 = tail call ptr @av_frame_alloc() #4
  store ptr %14, ptr %3, align 8, !tbaa !29
  %.not = icmp eq ptr %14, null
  br i1 %.not, label %24, label %15

15:                                               ; preds = %13
  %16 = load i32, ptr %4, align 8, !tbaa !27
  %17 = load i32, ptr %6, align 4, !tbaa !28
  %18 = shl i32 %16, 2
  %19 = mul i32 %18, %17
  %20 = sext i32 %19 to i64
  %21 = getelementptr inbounds nuw i8, ptr %3, i64 16
  store i64 %20, ptr %21, align 8, !tbaa !32
  %22 = tail call noalias ptr @av_malloc(i64 noundef %20) #4
  %23 = getelementptr inbounds nuw i8, ptr %3, i64 8
  store ptr %22, ptr %23, align 8, !tbaa !33
  %.not18 = icmp eq ptr %22, null
  %. = select i1 %.not18, i32 -12, i32 0
  br label %24

24:                                               ; preds = %15, %13, %10
  %.0 = phi i32 [ %8, %10 ], [ -12, %13 ], [ %., %15 ]
  ret i32 %.0
}